target datalayout = "e-m:e-p270:32:32-p271:32:32-p272:64:64-i64:64-i128:128-f80:128-n8:16:32:64-S128"
target triple = "x86_64-pc-linux-gnu"

%"class.OpenColorIO_v2_5dev::ArrayT" = type { %"class.OpenColorIO_v2_5dev::ArrayBase", i64, i64, %"class.std::vector" }
%"class.OpenColorIO_v2_5dev::ArrayBase" = type { ptr }
%"class.std::vector" = type { %"struct.std::_Vector_base" }
%"struct.std::_Vector_base" = type { %"struct.std::_Vector_base<double, std::allocator<double>>::_Vector_impl" }
%"struct.std::_Vector_base<double, std::allocator<double>>::_Vector_impl" = type { %"struct.std::_Vector_base<double, std::allocator<double>>::_Vector_impl_data" }
%"struct.std::_Vector_base<double, std::allocator<double>>::_Vector_impl_data" = type { ptr, ptr, ptr }

; Function Attrs: mustprogress nounwind uwtable
define linkonce_odr hidden noundef nonnull align 8 dereferenceable(8) ptr @_ZNSt6vectorIdSaIdEEixEm(ptr noundef nonnull align 8 dereferenceable(24) %0, i64 noundef %1) #7 comdat align 2 {
  %3 = alloca ptr, align 8
  %4 = alloca i64, align 8
  store ptr %0, ptr %3, align 8, !tbaa !18
  store i64 %1, ptr %4, align 8, !tbaa !22
  %5 = load ptr, ptr %3, align 8
  %6 = getelementptr inbounds nuw %"struct.std::_Vector_base", ptr %5, i32 0, i32 0
  %7 = getelementptr inbounds nuw %"struct.std::_Vector_base<double, std::allocator<double>>::_Vector_impl_data", ptr %6, i32 0, i32 0
  %8 = load ptr, ptr %7, align 8, !tbaa !24
  %9 = load i64, ptr %4, align 8, !tbaa !22
  %10 = getelementptr inbounds nuw double, ptr %8, i64 %9
  ret ptr %10
}

; Function Attrs: inlinehint mustprogress nounwind uwtable
define linkonce_odr hidden noundef nonnull align 8 dereferenceable(24) ptr @_ZN19OpenColorIO_v2_5dev6ArrayTIdE9getValuesEv(ptr noundef nonnull align 8 dereferenceable(48) %0) #6 comdat align 2 {
  %2 = alloca ptr, align 8
  store ptr %0, ptr %2, align 8, !tbaa !20
  %3 = load ptr, ptr %2, align 8
  %4 = getelementptr inbounds nuw %"class.OpenColorIO_v2_5dev::ArrayT", ptr %3, i32 0, i32 3
  ret ptr %4
}

; Function Attrs: mustprogress uwtable
define hidden void @_ZN19OpenColorIO_v2_5dev12MatrixOpData11MatrixArray7setRGBAEPKf(ptr noundef nonnull align 8 dereferenceable(48) %0, ptr noundef %1) #4 align 2 {
  %3 = alloca ptr, align 8
  %4 = alloca ptr, align 8
  %5 = alloca ptr, align 8
  store ptr %0, ptr %3, align 8, !tbaa !16
  store ptr %1, ptr %4, align 8, !tbaa !8
  %6 = load ptr, ptr %3, align 8
  call void @llvm.lifetime.start.p0(i64 8, ptr %5) #3
  %7 = call noundef nonnull align 8 dereferenceable(24) ptr @_ZN19OpenColorIO_v2_5dev6ArrayTIdE9getValuesEv(ptr noundef nonnull align 8 dereferenceable(48) %6)
  store ptr %7, ptr %5, align 8, !tbaa !18
  %8 = load ptr, ptr %4, align 8, !tbaa !8
  %9 = getelementptr inbounds float, ptr %8, i64 0
  %10 = load float, ptr %9, align 4, !tbaa !10
  %11 = fpext float %10 to double
  %12 = load ptr, ptr %5, align 8, !tbaa !18
  %13 = call noundef nonnull align 8 dereferenceable(8) ptr @_ZNSt6vectorIdSaIdEEixEm(ptr noundef nonnull align 8 dereferenceable(24) %12, i64 noundef 0) #3
  store double %11, ptr %13, align 8, !tbaa !12
  %14 = load ptr, ptr %4, align 8, !tbaa !8
  %15 = getelementptr inbounds float, ptr %14, i64 1
  %16 = load float, ptr %15, align 4, !tbaa !10
  %17 = fpext float %16 to double
  %18 = load ptr, ptr %5, align 8, !tbaa !18
  %19 = call noundef nonnull align 8 dereferenceable(8) ptr @_ZNSt6vectorIdSaIdEEixEm(ptr noundef nonnull align 8 dereferenceable(24) %18, i64 noundef 1) #3
  store double %17, ptr %19, align 8, !tbaa !12
  %20 = load ptr, ptr %4, align 8, !tbaa !8
  %21 = getelementptr inbounds float, ptr %20, i64 2
  %22 = load float, ptr %21, align 4, !tbaa !10
  %23 = fpext float %22 to double
  %24 = load ptr, ptr %5, align 8, !tbaa !18
  %25 = call noundef nonnull align 8 dereferenceable(8) ptr @_ZNSt6vectorIdSaIdEEixEm(ptr noundef nonnull align 8 dereferenceable(24) %24, i64 noundef 2) #3
  store double %23, ptr %25, align 8, !tbaa !12
  %26 = load ptr, ptr %4, align 8, !tbaa !8
  %27 = getelementptr inbounds float, ptr %26, i64 3
  %28 = load float, ptr %27, align 4, !tbaa !10
  %29 = fpext float %28 to double
  %30 = load ptr, ptr %5, align 8, !tbaa !18
  %31 = call noundef nonnull align 8 dereferenceable(8) ptr @_ZNSt6vectorIdSaIdEEixEm(ptr noundef nonnull align 8 dereferenceable(24) %30, i64 noundef 3) #3
  store double %29, ptr %31, align 8, !tbaa !12
  %32 = load ptr, ptr %4, align 8, !tbaa !8
  %33 = getelementptr inbounds float, ptr %32, i64 4
  %34 = load float, ptr %33, align 4, !tbaa !10
  %35 = fpext float %34 to double
  %36 = load ptr, ptr %5, align 8, !tbaa !18
  %37 = call noundef nonnull align 8 dereferenceable(8) ptr @_ZNSt6vectorIdSaIdEEixEm(ptr noundef nonnull align 8 dereferenceable(24) %36, i64 noundef 4) #3
  store double %35, ptr %37, align 8, !tbaa !12
  %38 = load ptr, ptr %4, align 8, !tbaa !8
  %39 = getelementptr inbounds float, ptr %38, i64 5
  %40 = load float, ptr %39, align 4, !tbaa !10
  %41 = fpext float %40 to double
  %42 = load ptr, ptr %5, align 8, !tbaa !18
  %43 = call noundef nonnull align 8 dereferenceable(8) ptr @_ZNSt6vectorIdSaIdEEixEm(ptr noundef nonnull align 8 dereferenceable(24) %42, i64 noundef 5) #3
  store double %41, ptr %43, align 8, !tbaa !12
  %44 = load ptr, ptr %4, align 8, !tbaa !8
  %45 = getelementptr inbounds float, ptr %44, i64 6
  %46 = load float, ptr %45, align 4, !tbaa !10
  %47 = fpext float %46 to double
  %48 = load ptr, ptr %5, align 8, !tbaa !18
  %49 = call noundef nonnull align 8 dereferenceable(8) ptr @_ZNSt6vectorIdSaIdEEixEm(ptr noundef nonnull align 8 dereferenceable(24) %48, i64 noundef 6) #3
  store double %47, ptr %49, align 8, !tbaa !12
  %50 = load ptr, ptr %4, align 8, !tbaa !8
  %51 = getelementptr inbounds float, ptr %50, i64 7
  %52 = load float, ptr %51, align 4, !tbaa !10
  %53 = fpext float %52 to double
  %54 = load ptr, ptr %5, align 8, !tbaa !18
  %55 = call noundef nonnull align 8 dereferenceable(8) ptr @_ZNSt6vectorIdSaIdEEixEm(ptr noundef nonnull align 8 dereferenceable(24) %54, i64 noundef 7) #3
  store double %53, ptr %55, align 8, !tbaa !12
  %56 = load ptr, ptr %4, align 8, !tbaa !8
  %57 = getelementptr inbounds float, ptr %56, i64 8
  %58 = load float, ptr %57, align 4, !tbaa !10
  %59 = fpext float %58 to double
  %60 = load ptr, ptr %5, align 8, !tbaa !18
  %61 = call noundef nonnull align 8 dereferenceable(8) ptr @_ZNSt6vectorIdSaIdEEixEm(ptr noundef nonnull align 8 dereferenceable(24) %60, i64 noundef 8) #3
  store double %59, ptr %61, align 8, !tbaa !12
  %62 = load ptr, ptr %4, align 8, !tbaa !8
  %63 = getelementptr inbounds float, ptr %62, i64 9
  %64 = load float, ptr %63, align 4, !tbaa !10
  %65 = fpext float %64 to double
  %66 = load ptr, ptr %5, align 8, !tbaa !18
  %67 = call noundef nonnull align 8 dereferenceable(8) ptr @_ZNSt6vectorIdSaIdEEixEm(ptr noundef nonnull align 8 dereferenceable(24) %66, i64 noundef 9) #3
  store double %65, ptr %67, align 8, !tbaa !12
  %68 = load ptr, ptr %4, align 8, !tbaa !8
  %69 = getelementptr inbounds float, ptr %68, i64 10
  %70 = load float, ptr %69, align 4, !tbaa !10
  %71 = fpext float %70 to double
  %72 = load ptr, ptr %5, align 8, !tbaa !18
  %73 = call noundef nonnull align 8 dereferenceable(8) ptr @_ZNSt6vectorIdSaIdEEixEm(ptr noundef nonnull align 8 dereferenceable(24) %72, i64 noundef 10) #3
  store double %71, ptr %73, align 8, !tbaa !12
  %74 = load ptr, ptr %4, align 8, !tbaa !8
  %75 = getelementptr inbounds float, ptr %74, i64 11
  %76 = load float, ptr %75, align 4, !tbaa !10
  %77 = fpext float %76 to double
  %78 = load ptr, ptr %5, align 8, !tbaa !18
  %79 = call noundef nonnull align 8 dereferenceable(8) ptr @_ZNSt6vectorIdSaIdEEixEm(ptr noundef nonnull align 8 dereferenceable(24) %78, i64 noundef 11) #3
  store double %77, ptr %79, align 8, !tbaa !12
  %80 = load ptr, ptr %4, align 8, !tbaa !8
  %81 = getelementptr inbounds float, ptr %80, i64 12
  %82 = load float, ptr %81, align 4, !tbaa !10
  %83 = fpext float %82 to double
  %84 = load ptr, ptr %5, align 8, !tbaa !18
  %85 = call noundef nonnull align 8 dereferenceable(8) ptr @_ZNSt6vectorIdSaIdEEixEm(ptr noundef nonnull align 8 dereferenceable(24) %84, i64 noundef 12) #3
  store double %83, ptr %85, align 8, !tbaa !12
  %86 = load ptr, ptr %4, align 8, !tbaa !8
  %87 = getelementptr inbounds float, ptr %86, i64 13
  %88 = load float, ptr %87, align 4, !tbaa !10
  %89 = fpext float %88 to double
  %90 = load ptr, ptr %5, align 8, !tbaa !18
  %91 = call noundef nonnull align 8 dereferenceable(8) ptr @_ZNSt6vectorIdSaIdEEixEm(ptr noundef nonnull align 8 dereferenceable(24) %90, i64 noundef 13) #3
  store double %89, ptr %91, align 8, !tbaa !12
  %92 = load ptr, ptr %4, align 8, !tbaa !8
  %93 = getelementptr inbounds float, ptr %92, i64 14
  %94 = load float, ptr %93, align 4, !tbaa !10
  %95 = fpext float %94 to double
  %96 = load ptr, ptr %5, align 8, !tbaa !18
  %97 = call noundef nonnull align 8 dereferenceable(8) ptr @_ZNSt6vectorIdSaIdEEixEm(ptr noundef nonnull align 8 dereferenceable(24) %96, i64 noundef 14) #3
  store double %95, ptr %97, align 8, !tbaa !12
  %98 = load ptr, ptr %4, align 8, !tbaa !8
  %99 = getelementptr inbounds float, ptr %98, i64 15
  %100 = load float, ptr %99, align 4, !tbaa !10
  %101 = fpext float %100 to double
  %102 = load ptr, ptr %5, align 8, !tbaa !18
  %103 = call noundef nonnull align 8 dereferenceable(8) ptr @_ZNSt6vectorIdSaIdEEixEm(ptr noundef nonnull align 8 dereferenceable(24) %102, i64 noundef 15) #3
  store double %101, ptr %103, align 8, !tbaa !12
  call void @llvm.lifetime.end.p0(i64 8, ptr %5) #3
  ret void
}