; Function Attrs: mustprogress nofree norecurse nosync nounwind willreturn memory(write, argmem: readwrite, inaccessiblemem: none) uwtable
define hidden void @_ZN19OpenColorIO_v2_5dev12MatrixOpData11MatrixArray7setRGBAEPKf(ptr noundef nonnull readonly align 8 captures(none) dereferenceable(48) %0, ptr noundef readonly captures(none) %1) local_unnamed_addr #6 align 2 {
  %3 = getelementptr inbounds nuw i8, ptr %0, i64 24
  %4 = load float, ptr %1, align 4, !tbaa !3
  %5 = fpext float %4 to double
  %6 = load ptr, ptr %3, align 8, !tbaa !9
  store double %5, ptr %6, align 8, !tbaa !7
  %7 = getelementptr inbounds nuw i8, ptr %1, i64 4
  %8 = load float, ptr %7, align 4, !tbaa !3
  %9 = fpext float %8 to double
  %10 = getelementptr inbounds nuw i8, ptr %6, i64 8
  store double %9, ptr %10, align 8, !tbaa !7
  %11 = getelementptr inbounds nuw i8, ptr %1, i64 8
  %12 = load float, ptr %11, align 4, !tbaa !3
  %13 = fpext float %12 to double
  %14 = getelementptr inbounds nuw i8, ptr %6, i64 16
  store double %13, ptr %14, align 8, !tbaa !7
  %15 = getelementptr inbounds nuw i8, ptr %1, i64 12
  %16 = load float, ptr %15, align 4, !tbaa !3
  %17 = fpext float %16 to double
  %18 = getelementptr inbounds nuw i8, ptr %6, i64 24
  store double %17, ptr %18, align 8, !tbaa !7
  %19 = getelementptr inbounds nuw i8, ptr %1, i64 16
  %20 = load float, ptr %19, align 4, !tbaa !3
  %21 = fpext float %20 to double
  %22 = getelementptr inbounds nuw i8, ptr %6, i64 32
  store double %21, ptr %22, align 8, !tbaa !7
  %23 = getelementptr inbounds nuw i8, ptr %1, i64 20
  %24 = load float, ptr %23, align 4, !tbaa !3
  %25 = fpext float %24 to double
  %26 = getelementptr inbounds nuw i8, ptr %6, i64 40
  store double %25, ptr %26, align 8, !tbaa !7
  %27 = getelementptr inbounds nuw i8, ptr %1, i64 24
  %28 = load float, ptr %27, align 4, !tbaa !3
  %29 = fpext float %28 to double
  %30 = getelementptr inbounds nuw i8, ptr %6, i64 48
  store double %29, ptr %30, align 8, !tbaa !7
  %31 = getelementptr inbounds nuw i8, ptr %1, i64 28
  %32 = load float, ptr %31, align 4, !tbaa !3
  %33 = fpext float %32 to double
  %34 = getelementptr inbounds nuw i8, ptr %6, i64 56
  store double %33, ptr %34, align 8, !tbaa !7
  %35 = getelementptr inbounds nuw i8, ptr %1, i64 32
  %36 = load float, ptr %35, align 4, !tbaa !3
  %37 = fpext float %36 to double
  %38 = getelementptr inbounds nuw i8, ptr %6, i64 64
  store double %37, ptr %38, align 8, !tbaa !7
  %39 = getelementptr inbounds nuw i8, ptr %1, i64 36
  %40 = load float, ptr %39, align 4, !tbaa !3
  %41 = fpext float %40 to double
  %42 = getelementptr inbounds nuw i8, ptr %6, i64 72
  store double %41, ptr %42, align 8, !tbaa !7
  %43 = getelementptr inbounds nuw i8, ptr %1, i64 40
  %44 = load float, ptr %43, align 4, !tbaa !3
  %45 = fpext float %44 to double
  %46 = getelementptr inbounds nuw i8, ptr %6, i64 80
  store double %45, ptr %46, align 8, !tbaa !7
  %47 = getelementptr inbounds nuw i8, ptr %1, i64 44
  %48 = load float, ptr %47, align 4, !tbaa !3
  %49 = fpext float %48 to double
  %50 = getelementptr inbounds nuw i8, ptr %6, i64 88
  store double %49, ptr %50, align 8, !tbaa !7
  %51 = getelementptr inbounds nuw i8, ptr %1, i64 48
  %52 = load float, ptr %51, align 4, !tbaa !3
  %53 = fpext float %52 to double
  %54 = getelementptr inbounds nuw i8, ptr %6, i64 96
  store double %53, ptr %54, align 8, !tbaa !7
  %55 = getelementptr inbounds nuw i8, ptr %1, i64 52
  %56 = load float, ptr %55, align 4, !tbaa !3
  %57 = fpext float %56 to double
  %58 = getelementptr inbounds nuw i8, ptr %6, i64 104
  store double %57, ptr %58, align 8, !tbaa !7
  %59 = getelementptr inbounds nuw i8, ptr %1, i64 56
  %60 = load float, ptr %59, align 4, !tbaa !3
  %61 = fpext float %60 to double
  %62 = getelementptr inbounds nuw i8, ptr %6, i64 112
  store double %61, ptr %62, align 8, !tbaa !7
  %63 = getelementptr inbounds nuw i8, ptr %1, i64 60
  %64 = load float, ptr %63, align 4, !tbaa !3
  %65 = fpext float %64 to double
  %66 = getelementptr inbounds nuw i8, ptr %6, i64 120
  store double %65, ptr %66, align 8, !tbaa !7
  ret void
}